target datalayout = "e-m:e-p270:32:32-p271:32:32-p272:64:64-i64:64-i128:128-f80:128-n8:16:32:64-S128"
target triple = "x86_64-pc-linux-gnu"

%struct.Object = type { ptr, ptr, ptr, i32, ptr }
%struct.QTailQLink = type { ptr, ptr }
%struct.AHCIDevice = type { %struct.IDEDMA, %struct.IDEBus, i32, i32, i32, %struct.AHCIPortRegs, ptr, ptr, ptr, ptr, i8, i32, i8, ptr, [32 x %struct.NCQTransferState], %struct.MemReentrancyGuard }
%struct.IDEDMA = type { ptr, %struct.QEMUIOVector, ptr }
%struct.QEMUIOVector = type { ptr, i32, %union.anon.3 }
%union.anon.3 = type { %struct.anon.4 }
%struct.anon.4 = type { i32, %struct.iovec }
%struct.iovec = type { ptr, i64 }
%struct.IDEBus = type { %struct.BusState, ptr, ptr, [2 x %struct.IDEState], ptr, i32, i32, ptr, i8, i8, ptr, i32, i8, i64, i32, %struct.PortioList, %struct.PortioList, ptr }
%struct.BusState = type { %struct.Object, ptr, ptr, ptr, i32, i8, i8, i32, %union.BusChildHead, %struct.BusStateEntry, %struct.ResettableState }
%union.BusChildHead = type { %struct.QTailQLink }
%struct.BusStateEntry = type { ptr, ptr }
%struct.ResettableState = type { i32, i8, i8 }
%struct.IDEState = type { ptr, i8, i32, i32, i32, i32, i32, i32, i32, i64, i32, i32, [512 x i8], i32, [21 x i8], [41 x i8], i8, i64, i8, i8, i32, i8, i8, i8, i8, i8, i8, i8, i8, i8, i8, i8, i8, i8, ptr, [9 x i8], %struct.unreported_events, i8, i8, i8, i8, i8, i32, i32, i32, i32, i32, i32, %struct.BlockAcctCookie, ptr, %struct.QEMUIOVector, %struct.anon.6, i64, i32, %struct.QEMUSGList, i32, ptr, ptr, ptr, ptr, i32, i32, i32, i8, ptr, i32, i8, i32, ptr, i32, i32, i8, i8, i32, i8, ptr, i32 }
%struct.unreported_events = type { i8, i8 }
%struct.BlockAcctCookie = type { i64, i64, i32 }
%struct.anon.6 = type { ptr }
%struct.QEMUSGList = type { ptr, i32, i32, i64, ptr, ptr }
%struct.PortioList = type { ptr, ptr, ptr, i32, i32, ptr, ptr, ptr, i8 }
%struct.AHCIPortRegs = type { i32, i32, i32, i32, i32, i32, i32, i32, i32, i32, i32, i32, i32, i32, i32, i32 }
%struct.NCQTransferState = type { ptr, ptr, ptr, %struct.QEMUSGList, %struct.BlockAcctCookie, i32, i64, i8, i8, i8, i8, i8 }
%struct.MemReentrancyGuard = type { i8 }

; Function Attrs: nounwind sspstrong uwtable
define internal void @ahci_restart(ptr noundef %0) #0 {
  %2 = alloca ptr, align 8
  %3 = alloca ptr, align 8
  %4 = alloca ptr, align 8
  %5 = alloca ptr, align 8
  %6 = alloca ptr, align 8
  %7 = alloca i32, align 4
  %8 = alloca ptr, align 8
  store ptr %0, ptr %2, align 8
  call void @llvm.lifetime.start.p0(i64 8, ptr %3) #15
  call void @llvm.lifetime.start.p0(i64 8, ptr %5) #15
  %9 = load ptr, ptr %2, align 8
  store ptr %9, ptr %5, align 8
  %10 = load ptr, ptr %5, align 8
  %11 = getelementptr inbounds i8, ptr %10, i64 0
  store ptr %11, ptr %6, align 8
  call void @llvm.lifetime.end.p0(i64 8, ptr %5) #15
  %12 = load ptr, ptr %6, align 8
  store ptr %12, ptr %4, align 8
  %13 = load ptr, ptr %4, align 8
  store ptr %13, ptr %3, align 8
  call void @llvm.lifetime.start.p0(i64 4, ptr %7) #15
  store i32 0, ptr %7, align 4, !annotation !4
  store i32 0, ptr %7, align 4
  br label %14

14:                                               ; preds = %30, %1
  %15 = load i32, ptr %7, align 4
  %16 = icmp slt i32 %15, 32
  br i1 %16, label %17, label %33

17:                                               ; preds = %14
  call void @llvm.lifetime.start.p0(i64 8, ptr %8) #15
  %18 = load ptr, ptr %3, align 8
  %19 = getelementptr inbounds nuw %struct.AHCIDevice, ptr %18, i32 0, i32 14
  %20 = load i32, ptr %7, align 4
  %21 = sext i32 %20 to i64
  %22 = getelementptr inbounds [32 x %struct.NCQTransferState], ptr %19, i64 0, i64 %21
  store ptr %22, ptr %8, align 8
  %23 = load ptr, ptr %8, align 8
  %24 = getelementptr inbounds nuw %struct.NCQTransferState, ptr %23, i32 0, i32 11
  %25 = load i8, ptr %24, align 4, !range !11, !noundef !12
  %26 = trunc i8 %25 to i1
  br i1 %26, label %27, label %29

27:                                               ; preds = %17
  %28 = load ptr, ptr %8, align 8
  call void @execute_ncq_command(ptr noundef %28)
  br label %29

29:                                               ; preds = %27, %17
  call void @llvm.lifetime.end.p0(i64 8, ptr %8) #15
  br label %30

30:                                               ; preds = %29
  %31 = load i32, ptr %7, align 4
  %32 = add i32 %31, 1
  store i32 %32, ptr %7, align 4
  br label %14, !llvm.loop !23

33:                                               ; preds = %14
  call void @llvm.lifetime.end.p0(i64 4, ptr %7) #15
  call void @llvm.lifetime.end.p0(i64 8, ptr %3) #15
  ret void
}