; Function Attrs: nounwind sspstrong uwtable
define internal void @ahci_restart(ptr noundef %0) #0 {
  %2 = getelementptr inbounds nuw i8, ptr %0, i64 2496
  br label %3

3:                                                ; preds = %1, %9
  %indvars.iv = phi i64 [ 0, %1 ], [ %indvars.iv.next, %9 ]
  %4 = getelementptr inbounds nuw [32 x %struct.NCQTransferState], ptr %2, i64 0, i64 %indvars.iv
  %5 = getelementptr inbounds nuw i8, ptr %4, i64 108
  %6 = load i8, ptr %5, align 4, !range !9, !noundef !10
  %7 = trunc nuw i8 %6 to i1
  br i1 %7, label %8, label %9

8:                                                ; preds = %3
  tail call fastcc void @execute_ncq_command(ptr noundef nonnull %4)
  br label %9

9:                                                ; preds = %8, %3
  %indvars.iv.next = add nuw nsw i64 %indvars.iv, 1
  %exitcond.not = icmp eq i64 %indvars.iv.next, 32
  br i1 %exitcond.not, label %10, label %3, !llvm.loop !29

10:                                               ; preds = %9
  ret void
}